target datalayout = "e-m:e-p270:32:32-p271:32:32-p272:64:64-i64:64-i128:128-f80:128-n8:16:32:64-S128"
target triple = "x86_64-pc-linux-gnu"

%struct.Sbd_Par_t_ = type { i32, i32, i32, i32, i32, i32, i32, i32, i32, i32, i32, i32, i32, i32, i32, i32, i32 }
%struct.Vec_Int_t_ = type { i32, i32, ptr }
%struct.Sbd_Man_t_ = type { ptr, ptr, ptr, ptr, ptr, ptr, ptr, [4 x ptr], ptr, ptr, ptr, [6 x i32], i32, i32, i64, i64, i64, i64, i64, i64, i64, i64, i64, ptr, ptr, i32, i32, ptr, ptr, ptr, ptr, ptr, ptr, ptr, ptr, [2 x ptr], ptr, ptr }
%struct.timespec = type { i64, i64 }

; Function Attrs: inlinehint nounwind uwtable
define internal i64 @Abc_Clock() #3 {
  %1 = alloca i64, align 8
  %2 = alloca %struct.timespec, align 8
  %3 = alloca i32, align 4
  %4 = alloca i64, align 8
  call void @llvm.lifetime.start.p0(i64 16, ptr %2) #13
  %5 = call i32 @clock_gettime(i32 noundef 1, ptr noundef %2) #13
  %6 = icmp slt i32 %5, 0
  br i1 %6, label %7, label %8

7:                                                ; preds = %0
  store i64 -1, ptr %1, align 8
  store i32 1, ptr %3, align 4
  br label %19

8:                                                ; preds = %0
  call void @llvm.lifetime.start.p0(i64 8, ptr %4) #13
  %9 = getelementptr inbounds nuw %struct.timespec, ptr %2, i32 0, i32 0
  %10 = load i64, ptr %9, align 8, !tbaa !326
  %11 = mul nsw i64 %10, 1000000
  store i64 %11, ptr %4, align 8, !tbaa !101
  %12 = getelementptr inbounds nuw %struct.timespec, ptr %2, i32 0, i32 1
  %13 = load i64, ptr %12, align 8, !tbaa !328
  %14 = mul nsw i64 %13, 1000000
  %15 = sdiv i64 %14, 1000000000
  %16 = load i64, ptr %4, align 8, !tbaa !101
  %17 = add nsw i64 %16, %15
  store i64 %17, ptr %4, align 8, !tbaa !101
  %18 = load i64, ptr %4, align 8, !tbaa !101
  store i64 %18, ptr %1, align 8
  store i32 1, ptr %3, align 4
  call void @llvm.lifetime.end.p0(i64 8, ptr %4) #13
  br label %19

19:                                               ; preds = %8, %7
  call void @llvm.lifetime.end.p0(i64 16, ptr %2) #13
  %20 = load i64, ptr %1, align 8
  ret i64 %20
}

; Function Attrs: inlinehint nounwind uwtable
define internal i32 @Vec_IntSize(ptr noundef %0) #3 {
  %2 = alloca ptr, align 8
  store ptr %0, ptr %2, align 8, !tbaa !52
  %3 = load ptr, ptr %2, align 8, !tbaa !52
  %4 = getelementptr inbounds nuw %struct.Vec_Int_t_, ptr %3, i32 0, i32 1
  %5 = load i32, ptr %4, align 4, !tbaa !65
  ret i32 %5
}

; Function Attrs: nounwind uwtable
define i32 @Sbd_ManExplore3(ptr noundef %0, i32 noundef %1, ptr noundef %2, ptr noundef %3) #0 {
  %5 = alloca i32, align 4
  %6 = alloca ptr, align 8
  %7 = alloca i32, align 4
  %8 = alloca ptr, align 8
  %9 = alloca ptr, align 8
  %10 = alloca i32, align 4
  %11 = alloca i32, align 4
  %12 = alloca i32, align 4
  %13 = alloca i32, align 4
  %14 = alloca [10 x i32], align 16
  %15 = alloca i64, align 8
  %16 = alloca i32, align 4
  store ptr %0, ptr %6, align 8, !tbaa !73
  store i32 %1, ptr %7, align 4, !tbaa !29
  store ptr %2, ptr %8, align 8, !tbaa !99
  store ptr %3, ptr %9, align 8, !tbaa !225
  call void @llvm.lifetime.start.p0(i64 4, ptr %10) #13
  %17 = load ptr, ptr %6, align 8, !tbaa !73
  %18 = getelementptr inbounds nuw %struct.Sbd_Man_t_, ptr %17, i32 0, i32 29
  %19 = load ptr, ptr %18, align 8, !tbaa !92
  %20 = call i32 @Vec_IntSize(ptr noundef %19)
  %21 = load ptr, ptr %6, align 8, !tbaa !73
  %22 = getelementptr inbounds nuw %struct.Sbd_Man_t_, ptr %21, i32 0, i32 27
  %23 = load ptr, ptr %22, align 8, !tbaa !140
  %24 = call i32 @Vec_IntSize(ptr noundef %23)
  %25 = add nsw i32 %20, %24
  %26 = load ptr, ptr %6, align 8, !tbaa !73
  %27 = getelementptr inbounds nuw %struct.Sbd_Man_t_, ptr %26, i32 0, i32 28
  %28 = load ptr, ptr %27, align 8, !tbaa !91
  %29 = call i32 @Vec_IntSize(ptr noundef %28)
  %30 = add nsw i32 %25, %29
  store i32 %30, ptr %10, align 4, !tbaa !29
  call void @llvm.lifetime.start.p0(i64 4, ptr %11) #13
  %31 = load i32, ptr %10, align 4, !tbaa !29
  store i32 %31, ptr %11, align 4, !tbaa !29
  call void @llvm.lifetime.start.p0(i64 4, ptr %12) #13
  call void @llvm.lifetime.start.p0(i64 4, ptr %13) #13
  call void @llvm.lifetime.start.p0(i64 40, ptr %14) #13
  call void @llvm.lifetime.start.p0(i64 8, ptr %15) #13
  %32 = call i64 @Abc_Clock()
  store i64 %32, ptr %15, align 8, !tbaa !101
  %33 = load ptr, ptr %6, align 8, !tbaa !73
  %34 = getelementptr inbounds nuw %struct.Sbd_Man_t_, ptr %33, i32 0, i32 37
  %35 = load ptr, ptr %34, align 8, !tbaa !146
  %36 = load ptr, ptr %6, align 8, !tbaa !73
  %37 = getelementptr inbounds nuw %struct.Sbd_Man_t_, ptr %36, i32 0, i32 1
  %38 = load ptr, ptr %37, align 8, !tbaa !81
  %39 = load ptr, ptr %6, align 8, !tbaa !73
  %40 = getelementptr inbounds nuw %struct.Sbd_Man_t_, ptr %39, i32 0, i32 6
  %41 = load ptr, ptr %40, align 8, !tbaa !85
  %42 = load i32, ptr %7, align 4, !tbaa !29
  %43 = load ptr, ptr %6, align 8, !tbaa !73
  %44 = getelementptr inbounds nuw %struct.Sbd_Man_t_, ptr %43, i32 0, i32 29
  %45 = load ptr, ptr %44, align 8, !tbaa !92
  %46 = load ptr, ptr %6, align 8, !tbaa !73
  %47 = getelementptr inbounds nuw %struct.Sbd_Man_t_, ptr %46, i32 0, i32 30
  %48 = load ptr, ptr %47, align 8, !tbaa !93
  %49 = load ptr, ptr %6, align 8, !tbaa !73
  %50 = getelementptr inbounds nuw %struct.Sbd_Man_t_, ptr %49, i32 0, i32 27
  %51 = load ptr, ptr %50, align 8, !tbaa !140
  %52 = load ptr, ptr %6, align 8, !tbaa !73
  %53 = getelementptr inbounds nuw %struct.Sbd_Man_t_, ptr %52, i32 0, i32 28
  %54 = load ptr, ptr %53, align 8, !tbaa !91
  %55 = call ptr @Sbd_ManSatSolver(ptr noundef %35, ptr noundef %38, ptr noundef %41, i32 noundef %42, ptr noundef %45, ptr noundef %48, ptr noundef %51, ptr noundef %54, i32 noundef 0)
  %56 = load ptr, ptr %6, align 8, !tbaa !73
  %57 = getelementptr inbounds nuw %struct.Sbd_Man_t_, ptr %56, i32 0, i32 37
  store ptr %55, ptr %57, align 8, !tbaa !146
  %58 = call i64 @Abc_Clock()
  %59 = load i64, ptr %15, align 8, !tbaa !101
  %60 = sub nsw i64 %58, %59
  %61 = load ptr, ptr %6, align 8, !tbaa !73
  %62 = getelementptr inbounds nuw %struct.Sbd_Man_t_, ptr %61, i32 0, i32 17
  %63 = load i64, ptr %62, align 8, !tbaa !147
  %64 = add nsw i64 %63, %60
  store i64 %64, ptr %62, align 8, !tbaa !147
  %65 = load ptr, ptr %6, align 8, !tbaa !73
  %66 = getelementptr inbounds nuw %struct.Sbd_Man_t_, ptr %65, i32 0, i32 24
  %67 = load ptr, ptr %66, align 8, !tbaa !105
  %68 = icmp ne ptr %67, null
  br i1 %68, label %69, label %90

69:                                               ; preds = %4
  %70 = load ptr, ptr %6, align 8, !tbaa !73
  %71 = getelementptr inbounds nuw %struct.Sbd_Man_t_, ptr %70, i32 0, i32 24
  %72 = load ptr, ptr %71, align 8, !tbaa !105
  %73 = load i32, ptr %7, align 4, !tbaa !29
  %74 = getelementptr inbounds [10 x i32], ptr %14, i64 0, i64 0
  %75 = call i32 @Sbd_ManCutServerFirst(ptr noundef %72, i32 noundef %73, ptr noundef %74)
  store i32 %75, ptr %13, align 4, !tbaa !29
  %76 = load i32, ptr %13, align 4, !tbaa !29
  %77 = icmp eq i32 %76, -1
  br i1 %77, label %78, label %79

78:                                               ; preds = %69
  store i32 0, ptr %5, align 4
  store i32 1, ptr %16, align 4
  br label %131

79:                                               ; preds = %69
  %80 = load ptr, ptr %6, align 8, !tbaa !73
  %81 = load i32, ptr %7, align 4, !tbaa !29
  %82 = load i32, ptr %13, align 4, !tbaa !29
  %83 = getelementptr inbounds [10 x i32], ptr %14, i64 0, i64 0
  %84 = load ptr, ptr %8, align 8, !tbaa !99
  %85 = load ptr, ptr %9, align 8, !tbaa !225
  %86 = call i32 @Sbd_ManExploreCut(ptr noundef %80, i32 noundef %81, i32 noundef %82, ptr noundef %83, ptr noundef %84, ptr noundef %85, ptr noundef %10)
  %87 = icmp ne i32 %86, 0
  br i1 %87, label %88, label %89

88:                                               ; preds = %79
  store i32 1, ptr %5, align 4
  store i32 1, ptr %16, align 4
  br label %131

89:                                               ; preds = %79
  store i32 0, ptr %5, align 4
  store i32 1, ptr %16, align 4
  br label %131

90:                                               ; preds = %4
  %91 = load ptr, ptr %6, align 8, !tbaa !73
  %92 = getelementptr inbounds nuw %struct.Sbd_Man_t_, ptr %91, i32 0, i32 0
  %93 = load ptr, ptr %92, align 8, !tbaa !80
  %94 = getelementptr inbounds nuw %struct.Sbd_Par_t_, ptr %93, i32 0, i32 0
  %95 = load i32, ptr %94, align 4, !tbaa !8
  %96 = add nsw i32 %95, 1
  store i32 %96, ptr %12, align 4, !tbaa !29
  br label %97

97:                                               ; preds = %127, %90
  %98 = load i32, ptr %12, align 4, !tbaa !29
  %99 = load ptr, ptr %6, align 8, !tbaa !73
  %100 = getelementptr inbounds nuw %struct.Sbd_Man_t_, ptr %99, i32 0, i32 0
  %101 = load ptr, ptr %100, align 8, !tbaa !80
  %102 = getelementptr inbounds nuw %struct.Sbd_Par_t_, ptr %101, i32 0, i32 2
  %103 = load i32, ptr %102, align 4, !tbaa !12
  %104 = icmp sle i32 %98, %103
  br i1 %104, label %105, label %130

105:                                              ; preds = %97
  %106 = load ptr, ptr %6, align 8, !tbaa !73
  %107 = getelementptr inbounds nuw %struct.Sbd_Man_t_, ptr %106, i32 0, i32 23
  %108 = load ptr, ptr %107, align 8, !tbaa !104
  %109 = load i32, ptr %7, align 4, !tbaa !29
  %110 = load i32, ptr %12, align 4, !tbaa !29
  %111 = getelementptr inbounds [10 x i32], ptr %14, i64 0, i64 0
  %112 = call i32 @Sbd_StoObjBestCut(ptr noundef %108, i32 noundef %109, i32 noundef %110, ptr noundef %111)
  store i32 %112, ptr %13, align 4, !tbaa !29
  %113 = load i32, ptr %13, align 4, !tbaa !29
  %114 = icmp eq i32 %113, -1
  br i1 %114, label %115, label %116

115:                                              ; preds = %105
  br label %127

116:                                              ; preds = %105
  %117 = load ptr, ptr %6, align 8, !tbaa !73
  %118 = load i32, ptr %7, align 4, !tbaa !29
  %119 = load i32, ptr %13, align 4, !tbaa !29
  %120 = getelementptr inbounds [10 x i32], ptr %14, i64 0, i64 0
  %121 = load ptr, ptr %8, align 8, !tbaa !99
  %122 = load ptr, ptr %9, align 8, !tbaa !225
  %123 = call i32 @Sbd_ManExploreCut(ptr noundef %117, i32 noundef %118, i32 noundef %119, ptr noundef %120, ptr noundef %121, ptr noundef %122, ptr noundef %10)
  %124 = icmp ne i32 %123, 0
  br i1 %124, label %125, label %126

125:                                              ; preds = %116
  store i32 1, ptr %5, align 4
  store i32 1, ptr %16, align 4
  br label %131

126:                                              ; preds = %116
  br label %127

127:                                              ; preds = %126, %115
  %128 = load i32, ptr %12, align 4, !tbaa !29
  %129 = add nsw i32 %128, 1
  store i32 %129, ptr %12, align 4, !tbaa !29
  br label %97, !llvm.loop !263

130:                                              ; preds = %97
  store i32 0, ptr %5, align 4
  store i32 1, ptr %16, align 4
  br label %131

131:                                              ; preds = %130, %125, %89, %88, %78
  call void @llvm.lifetime.end.p0(i64 8, ptr %15) #13
  call void @llvm.lifetime.end.p0(i64 40, ptr %14) #13
  call void @llvm.lifetime.end.p0(i64 4, ptr %13) #13
  call void @llvm.lifetime.end.p0(i64 4, ptr %12) #13
  call void @llvm.lifetime.end.p0(i64 4, ptr %11) #13
  call void @llvm.lifetime.end.p0(i64 4, ptr %10) #13
  %132 = load i32, ptr %5, align 4
  ret i32 %132
}