; Function Attrs: nounwind uwtable
define range(i32 0, 2) i32 @Sbd_ManExplore3(ptr noundef %0, i32 noundef %1, ptr noundef captures(none) %2, ptr noundef %3) local_unnamed_addr #2 {
  %5 = alloca %struct.timespec, align 8
  %6 = alloca %struct.timespec, align 8
  %7 = alloca i32, align 4
  %8 = alloca [10 x i32], align 16
  call void @llvm.lifetime.start.p0(i64 4, ptr nonnull %7) #32
  %9 = getelementptr inbounds nuw i8, ptr %0, i64 256
  %10 = load ptr, ptr %9, align 8, !tbaa !91
  %11 = getelementptr i8, ptr %10, i64 4
  %.val44 = load i32, ptr %11, align 4, !tbaa !48
  %12 = getelementptr inbounds nuw i8, ptr %0, i64 240
  %13 = load ptr, ptr %12, align 8, !tbaa !129
  %14 = getelementptr i8, ptr %13, i64 4
  %.val43 = load i32, ptr %14, align 4, !tbaa !48
  %15 = add nsw i32 %.val43, %.val44
  %16 = getelementptr inbounds nuw i8, ptr %0, i64 248
  %17 = load ptr, ptr %16, align 8, !tbaa !90
  %18 = getelementptr i8, ptr %17, i64 4
  %.val = load i32, ptr %18, align 4, !tbaa !48
  %19 = add nsw i32 %15, %.val
  store i32 %19, ptr %7, align 4, !tbaa !50
  call void @llvm.lifetime.start.p0(i64 40, ptr nonnull %8) #32
  call void @llvm.lifetime.start.p0(i64 16, ptr nonnull %6) #32
  %20 = call i32 @clock_gettime(i32 noundef 1, ptr noundef nonnull %6) #32
  %21 = icmp slt i32 %20, 0
  br i1 %21, label %Abc_Clock.exit, label %22

22:                                               ; preds = %4
  %23 = load i64, ptr %6, align 8, !tbaa !65
  %.neg47 = mul i64 %23, -1000000
  %24 = getelementptr inbounds nuw i8, ptr %6, i64 8
  %25 = load i64, ptr %24, align 8, !tbaa !67
  %.neg = sdiv i64 %25, -1000
  %.neg48 = add i64 %.neg, %.neg47
  br label %Abc_Clock.exit

Abc_Clock.exit:                                   ; preds = %4, %22
  %.0.i.neg = phi i64 [ %.neg48, %22 ], [ 1, %4 ]
  call void @llvm.lifetime.end.p0(i64 16, ptr nonnull %6) #32
  %26 = getelementptr inbounds nuw i8, ptr %0, i64 328
  %27 = load ptr, ptr %26, align 8, !tbaa !134
  %28 = getelementptr inbounds nuw i8, ptr %0, i64 8
  %29 = load ptr, ptr %28, align 8, !tbaa !75
  %30 = getelementptr inbounds nuw i8, ptr %0, i64 48
  %31 = load ptr, ptr %30, align 8, !tbaa !79
  %32 = load ptr, ptr %9, align 8, !tbaa !91
  %33 = getelementptr inbounds nuw i8, ptr %0, i64 264
  %34 = load ptr, ptr %33, align 8, !tbaa !92
  %35 = load ptr, ptr %12, align 8, !tbaa !129
  %36 = load ptr, ptr %16, align 8, !tbaa !90
  %37 = call ptr @Sbd_ManSatSolver(ptr noundef %27, ptr noundef %29, ptr noundef %31, i32 noundef %1, ptr noundef %32, ptr noundef %34, ptr noundef %35, ptr noundef %36, i32 noundef 0) #32
  store ptr %37, ptr %26, align 8, !tbaa !134
  call void @llvm.lifetime.start.p0(i64 16, ptr nonnull %5) #32
  %38 = call i32 @clock_gettime(i32 noundef 1, ptr noundef nonnull %5) #32
  %39 = icmp slt i32 %38, 0
  br i1 %39, label %Abc_Clock.exit46, label %40

40:                                               ; preds = %Abc_Clock.exit
  %41 = load i64, ptr %5, align 8, !tbaa !65
  %42 = mul nsw i64 %41, 1000000
  %43 = getelementptr inbounds nuw i8, ptr %5, i64 8
  %44 = load i64, ptr %43, align 8, !tbaa !67
  %45 = sdiv i64 %44, 1000
  %46 = add nsw i64 %45, %42
  br label %Abc_Clock.exit46

Abc_Clock.exit46:                                 ; preds = %Abc_Clock.exit, %40
  %.0.i45 = phi i64 [ %46, %40 ], [ -1, %Abc_Clock.exit ]
  call void @llvm.lifetime.end.p0(i64 16, ptr nonnull %5) #32
  %47 = add i64 %.0.i45, %.0.i.neg
  %48 = getelementptr inbounds nuw i8, ptr %0, i64 168
  %49 = load i64, ptr %48, align 8, !tbaa !135
  %50 = add nsw i64 %47, %49
  store i64 %50, ptr %48, align 8, !tbaa !135
  %51 = getelementptr inbounds nuw i8, ptr %0, i64 224
  %52 = load ptr, ptr %51, align 8, !tbaa !104
  %.not = icmp eq ptr %52, null
  br i1 %.not, label %58, label %53

53:                                               ; preds = %Abc_Clock.exit46
  %54 = call i32 @Sbd_ManCutServerFirst(ptr noundef nonnull %52, i32 noundef %1, ptr noundef nonnull %8) #32
  %55 = icmp eq i32 %54, -1
  br i1 %55, label %.loopexit, label %56

56:                                               ; preds = %53
  %57 = call i32 @Sbd_ManExploreCut(ptr noundef nonnull %0, i32 noundef %1, i32 noundef %54, ptr noundef nonnull %8, ptr noundef %2, ptr noundef %3, ptr noundef nonnull %7)
  %.not42 = icmp ne i32 %57, 0
  %. = zext i1 %.not42 to i32
  br label %.loopexit

58:                                               ; preds = %Abc_Clock.exit46
  %59 = load ptr, ptr %0, align 8, !tbaa !74
  %60 = load i32, ptr %59, align 4, !tbaa !3
  %61 = getelementptr inbounds nuw i8, ptr %59, i64 8
  %62 = load i32, ptr %61, align 4, !tbaa !9
  %.not40.not50 = icmp slt i32 %60, %62
  br i1 %.not40.not50, label %.lr.ph, label %.loopexit

.lr.ph:                                           ; preds = %58
  %63 = getelementptr inbounds nuw i8, ptr %0, i64 216
  br label %64

64:                                               ; preds = %.lr.ph, %70
  %.03651.in = phi i32 [ %60, %.lr.ph ], [ %.03651, %70 ]
  %.03651 = add nsw i32 %.03651.in, 1
  %65 = load ptr, ptr %63, align 8, !tbaa !105
  %66 = call i32 @Sbd_StoObjBestCut(ptr noundef %65, i32 noundef %1, i32 noundef %.03651, ptr noundef nonnull %8) #32
  %67 = icmp eq i32 %66, -1
  br i1 %67, label %70, label %68

68:                                               ; preds = %64
  %69 = call i32 @Sbd_ManExploreCut(ptr noundef nonnull %0, i32 noundef %1, i32 noundef %66, ptr noundef nonnull %8, ptr noundef %2, ptr noundef %3, ptr noundef nonnull %7)
  %.not41 = icmp eq i32 %69, 0
  br i1 %.not41, label %70, label %.loopexit

70:                                               ; preds = %68, %64
  %71 = load ptr, ptr %0, align 8, !tbaa !74
  %72 = getelementptr inbounds nuw i8, ptr %71, i64 8
  %73 = load i32, ptr %72, align 4, !tbaa !9
  %.not40.not = icmp slt i32 %.03651, %73
  br i1 %.not40.not, label %64, label %.loopexit, !llvm.loop !249

.loopexit:                                        ; preds = %68, %70, %58, %56, %53
  %.0 = phi i32 [ 0, %53 ], [ %., %56 ], [ 0, %58 ], [ 1, %68 ], [ 0, %70 ]
  call void @llvm.lifetime.end.p0(i64 40, ptr nonnull %8) #32
  call void @llvm.lifetime.end.p0(i64 4, ptr nonnull %7) #32
  ret i32 %.0
}